; Function Attrs: inlinehint mustprogress uwtable
define internal fastcc void @"_ZZN7xgboost12_GLOBAL__N_113MakeDeviceOrdERKNSt7__cxx1112basic_stringIcSt11char_traitsIcESaIcEEEbENK3$_0clEv"(ptr readonly captures(none) %.0.val, ptr readonly captures(none) %.8.val) unnamed_addr #7 align 2 personality ptr @__gxx_personality_v0 {
  %1 = alloca %"class.dmlc::LogMessageFatal", align 1
  call void @llvm.lifetime.start.p0(i64 1, ptr nonnull %1) #16
  %2 = call noundef nonnull align 8 dereferenceable(376) ptr @_ZN4dmlc15LogMessageFatal8GetEntryEv(ptr noundef nonnull align 1 dereferenceable(1) %1)
  call void @_ZN4dmlc15LogMessageFatal5Entry4InitEPKci(ptr noundef nonnull align 8 dereferenceable(376) %2, ptr noundef nonnull @.str.5, i32 noundef 107)
  %3 = invoke noundef nonnull align 8 dereferenceable(376) ptr @_ZN4dmlc15LogMessageFatal8GetEntryEv(ptr noundef nonnull align 1 dereferenceable(1) %1)
          to label %_ZN4dmlc15LogMessageFatal6streamB5cxx11Ev.exit unwind label %.loopexit.split-lp

_ZN4dmlc15LogMessageFatal6streamB5cxx11Ev.exit:   ; preds = %0
  %.sroa.0.0.copyload = load ptr, ptr %.0.val, align 8, !tbaa !128
  %.sroa.2.0..sroa_idx = getelementptr inbounds nuw i8, ptr %.0.val, i64 8
  %.sroa.2.0.copyload = load i64, ptr %.sroa.2.0..sroa_idx, align 8, !tbaa !15
  %4 = getelementptr inbounds nuw i8, ptr %.sroa.0.0.copyload, i64 %.sroa.2.0.copyload
  %.not9.i = icmp samesign eq i64 %.sroa.2.0.copyload, 0
  br i1 %.not9.i, label %_ZN7xgboostlsERSoNS_10StringViewE.exit, label %.lr.ph.i

.lr.ph.i:                                         ; preds = %_ZN4dmlc15LogMessageFatal6streamB5cxx11Ev.exit, %.noexc
  %.010.i = phi ptr [ %7, %.noexc ], [ %.sroa.0.0.copyload, %_ZN4dmlc15LogMessageFatal6streamB5cxx11Ev.exit ]
  %5 = load i8, ptr %.010.i, align 1, !tbaa !13
  %6 = invoke noundef nonnull align 8 dereferenceable(8) ptr @_ZNSo3putEc(ptr noundef nonnull align 8 dereferenceable(8) %3, i8 noundef signext %5)
          to label %.noexc unwind label %.loopexit

.noexc:                                           ; preds = %.lr.ph.i
  %7 = getelementptr inbounds nuw i8, ptr %.010.i, i64 1
  %.not.i = icmp eq ptr %7, %4
  br i1 %.not.i, label %_ZN7xgboostlsERSoNS_10StringViewE.exit, label %.lr.ph.i

_ZN7xgboostlsERSoNS_10StringViewE.exit:           ; preds = %.noexc, %_ZN4dmlc15LogMessageFatal6streamB5cxx11Ev.exit
  %8 = invoke noundef nonnull align 8 dereferenceable(8) ptr @_ZSt16__ostream_insertIcSt11char_traitsIcEERSt13basic_ostreamIT_T0_ES6_PKS3_l(ptr noundef nonnull align 8 dereferenceable(8) %3, ptr noundef nonnull @.str.215, i64 noundef 6)
          to label %_ZStlsISt11char_traitsIcEERSt13basic_ostreamIcT_ES5_PKc.exit unwind label %.loopexit.split-lp

_ZStlsISt11char_traitsIcEERSt13basic_ostreamIcT_ES5_PKc.exit: ; preds = %_ZN7xgboostlsERSoNS_10StringViewE.exit
  %9 = load ptr, ptr %.8.val, align 8, !tbaa !4
  %10 = getelementptr inbounds nuw i8, ptr %.8.val, i64 8
  %11 = load i64, ptr %10, align 8, !tbaa !12
  %12 = invoke noundef nonnull align 8 dereferenceable(8) ptr @_ZSt16__ostream_insertIcSt11char_traitsIcEERSt13basic_ostreamIT_T0_ES6_PKS3_l(ptr noundef nonnull align 8 dereferenceable(8) %3, ptr noundef %9, i64 noundef %11)
          to label %_ZStlsIcSt11char_traitsIcESaIcEERSt13basic_ostreamIT_T0_ES7_RKNSt7__cxx1112basic_stringIS4_S5_T1_EE.exit unwind label %.loopexit.split-lp

_ZStlsIcSt11char_traitsIcESaIcEERSt13basic_ostreamIT_T0_ES7_RKNSt7__cxx1112basic_stringIS4_S5_T1_EE.exit: ; preds = %_ZStlsISt11char_traitsIcEERSt13basic_ostreamIcT_ES5_PKc.exit
  %13 = invoke noundef nonnull align 8 dereferenceable(8) ptr @_ZSt16__ostream_insertIcSt11char_traitsIcEERSt13basic_ostreamIT_T0_ES6_PKS3_l(ptr noundef nonnull align 8 dereferenceable(8) %12, ptr noundef nonnull @.str.216, i64 noundef 2)
          to label %_ZStlsISt11char_traitsIcEERSt13basic_ostreamIcT_ES5_PKc.exit5 unwind label %.loopexit.split-lp

_ZStlsISt11char_traitsIcEERSt13basic_ostreamIcT_ES5_PKc.exit5: ; preds = %_ZStlsIcSt11char_traitsIcESaIcEERSt13basic_ostreamIT_T0_ES7_RKNSt7__cxx1112basic_stringIS4_S5_T1_EE.exit
  call void @_ZN4dmlc15LogMessageFatalD2Ev(ptr noundef nonnull align 1 dereferenceable(1) %1)
  call void @llvm.lifetime.end.p0(i64 1, ptr nonnull %1) #16
  ret void

.loopexit:                                        ; preds = %.lr.ph.i
  %lpad.loopexit = landingpad { ptr, i32 }
          cleanup
  br label %14

.loopexit.split-lp:                               ; preds = %0, %_ZN7xgboostlsERSoNS_10StringViewE.exit, %_ZStlsISt11char_traitsIcEERSt13basic_ostreamIcT_ES5_PKc.exit, %_ZStlsIcSt11char_traitsIcESaIcEERSt13basic_ostreamIT_T0_ES7_RKNSt7__cxx1112basic_stringIS4_S5_T1_EE.exit
  %lpad.loopexit.split-lp = landingpad { ptr, i32 }
          cleanup
  br label %14

14:                                               ; preds = %.loopexit.split-lp, %.loopexit
  %lpad.phi = phi { ptr, i32 } [ %lpad.loopexit, %.loopexit ], [ %lpad.loopexit.split-lp, %.loopexit.split-lp ]
  invoke void @_ZN4dmlc15LogMessageFatalD2Ev(ptr noundef nonnull align 1 dereferenceable(1) %1)
          to label %15 unwind label %16

15:                                               ; preds = %14
  call void @llvm.lifetime.end.p0(i64 1, ptr nonnull %1) #16
  resume { ptr, i32 } %lpad.phi

16:                                               ; preds = %14
  %17 = landingpad { ptr, i32 }
          catch ptr null
  %18 = extractvalue { ptr, i32 } %17, 0
  call void @__clang_call_terminate(ptr %18) #36
  unreachable
}